target datalayout = "e-m:e-p270:32:32-p271:32:32-p272:64:64-i64:64-i128:128-f80:128-n8:16:32:64-S128"
target triple = "x86_64-pc-linux-gnu"

%struct.hb_ot_map_feature_t = type { i32, i32 }
%struct.hb_ot_shape_planner_t = type { ptr, %struct.hb_segment_properties_t, %struct.hb_ot_map_builder_t, i8, ptr }
%struct.hb_segment_properties_t = type { i32, i32, ptr, ptr, ptr }
%struct.hb_ot_map_builder_t = type { ptr, %struct.hb_segment_properties_t, i8, [2 x i32], [2 x i8], [2 x i32], [2 x i32], [2 x i32], %struct.hb_vector_t.2, [2 x %struct.hb_vector_t.3] }
%struct.hb_vector_t.2 = type { i32, i32, ptr }
%struct.hb_vector_t.3 = type { i32, i32, ptr }

; Function Attrs: mustprogress nounwind uwtable
define internal noundef i32 @_Zor25hb_ot_map_feature_flags_tS_(i32 noundef %0, i32 noundef %1) #1 {
  %3 = alloca i32, align 4
  %4 = alloca i32, align 4
  store i32 %0, ptr %3, align 4
  store i32 %1, ptr %4, align 4
  %5 = load i32, ptr %3, align 4
  %6 = load i32, ptr %4, align 4
  %7 = or i32 %5, %6
  ret i32 %7
}

; Function Attrs: mustprogress uwtable
define linkonce_odr hidden void @_ZN19hb_ot_map_builder_t11add_featureERK19hb_ot_map_feature_t(ptr noundef nonnull align 8 dereferenceable(128) %0, ptr noundef nonnull align 4 dereferenceable(8) %1) #0 comdat align 2 {
  %3 = alloca ptr, align 8
  %4 = alloca ptr, align 8
  store ptr %0, ptr %3, align 8
  store ptr %1, ptr %4, align 8
  %5 = load ptr, ptr %3, align 8
  %6 = load ptr, ptr %4, align 8
  %7 = getelementptr inbounds %struct.hb_ot_map_feature_t, ptr %6, i32 0, i32 0
  %8 = load i32, ptr %7, align 4
  %9 = load ptr, ptr %4, align 8
  %10 = getelementptr inbounds %struct.hb_ot_map_feature_t, ptr %9, i32 0, i32 1
  %11 = load i32, ptr %10, align 4
  call void @_ZN19hb_ot_map_builder_t11add_featureEj25hb_ot_map_feature_flags_tj(ptr noundef nonnull align 8 dereferenceable(128) %5, i32 noundef %8, i32 noundef %11, i32 noundef 1)
  ret void
}

; Function Attrs: mustprogress uwtable
define linkonce_odr hidden void @_ZN19hb_ot_map_builder_t14enable_featureEj25hb_ot_map_feature_flags_tj(ptr noundef nonnull align 8 dereferenceable(128) %0, i32 noundef %1, i32 noundef %2, i32 noundef %3) #0 comdat align 2 {
  %5 = alloca ptr, align 8
  %6 = alloca i32, align 4
  %7 = alloca i32, align 4
  %8 = alloca i32, align 4
  store ptr %0, ptr %5, align 8
  store i32 %1, ptr %6, align 4
  store i32 %2, ptr %7, align 4
  store i32 %3, ptr %8, align 4
  %9 = load ptr, ptr %5, align 8
  %10 = load i32, ptr %6, align 4
  %11 = load i32, ptr %7, align 4
  %12 = call noundef i32 @_Zor25hb_ot_map_feature_flags_tS_(i32 noundef 1, i32 noundef %11)
  %13 = load i32, ptr %8, align 4
  call void @_ZN19hb_ot_map_builder_t11add_featureEj25hb_ot_map_feature_flags_tj(ptr noundef nonnull align 8 dereferenceable(128) %9, i32 noundef %10, i32 noundef %12, i32 noundef %13)
  ret void
}

; Function Attrs: mustprogress uwtable
define linkonce_odr hidden void @_ZN19hb_ot_map_builder_t14add_gsub_pauseEPFbPK18hb_ot_shape_plan_tP9hb_font_tP11hb_buffer_tE(ptr noundef nonnull align 8 dereferenceable(128) %0, ptr noundef %1) #0 comdat align 2 {
  %3 = alloca ptr, align 8
  %4 = alloca ptr, align 8
  store ptr %0, ptr %3, align 8
  store ptr %1, ptr %4, align 8
  %5 = load ptr, ptr %3, align 8
  %6 = load ptr, ptr %4, align 8
  call void @_ZN19hb_ot_map_builder_t9add_pauseEjPFbPK18hb_ot_shape_plan_tP9hb_font_tP11hb_buffer_tE(ptr noundef nonnull align 8 dereferenceable(128) %5, i32 noundef 0, ptr noundef %6)
  ret void
}

; Function Attrs: mustprogress uwtable
define internal void @_ZL22collect_features_khmerP21hb_ot_shape_planner_t(ptr noundef %0) #0 {
  %2 = alloca ptr, align 8
  %3 = alloca ptr, align 8
  %4 = alloca i32, align 4
  store ptr %0, ptr %2, align 8
  %5 = load ptr, ptr %2, align 8
  %6 = getelementptr inbounds %struct.hb_ot_shape_planner_t, ptr %5, i32 0, i32 2
  store ptr %6, ptr %3, align 8
  %7 = load ptr, ptr %3, align 8
  call void @_ZN19hb_ot_map_builder_t14add_gsub_pauseEPFbPK18hb_ot_shape_plan_tP9hb_font_tP11hb_buffer_tE(ptr noundef nonnull align 8 dereferenceable(128) %7, ptr noundef @_ZL21setup_syllables_khmerPK18hb_ot_shape_plan_tP9hb_font_tP11hb_buffer_t)
  %8 = load ptr, ptr %3, align 8
  call void @_ZN19hb_ot_map_builder_t14add_gsub_pauseEPFbPK18hb_ot_shape_plan_tP9hb_font_tP11hb_buffer_tE(ptr noundef nonnull align 8 dereferenceable(128) %8, ptr noundef @_ZL13reorder_khmerPK18hb_ot_shape_plan_tP9hb_font_tP11hb_buffer_t)
  %9 = load ptr, ptr %3, align 8
  call void @_ZN19hb_ot_map_builder_t14enable_featureEj25hb_ot_map_feature_flags_tj(ptr noundef nonnull align 8 dereferenceable(128) %9, i32 noundef 1819239276, i32 noundef 64, i32 noundef 1)
  %10 = load ptr, ptr %3, align 8
  call void @_ZN19hb_ot_map_builder_t14enable_featureEj25hb_ot_map_feature_flags_tj(ptr noundef nonnull align 8 dereferenceable(128) %10, i32 noundef 1667460464, i32 noundef 64, i32 noundef 1)
  store i32 0, ptr %4, align 4
  br label %11

11:                                               ; preds = %19, %1
  %12 = load i32, ptr %4, align 4
  %13 = icmp ult i32 %12, 5
  br i1 %13, label %14, label %22

14:                                               ; preds = %11
  %15 = load ptr, ptr %3, align 8
  %16 = load i32, ptr %4, align 4
  %17 = zext i32 %16 to i64
  %18 = getelementptr inbounds [9 x %struct.hb_ot_map_feature_t], ptr @_ZL14khmer_features, i64 0, i64 %17
  call void @_ZN19hb_ot_map_builder_t11add_featureERK19hb_ot_map_feature_t(ptr noundef nonnull align 8 dereferenceable(128) %15, ptr noundef nonnull align 4 dereferenceable(8) %18)
  br label %19

19:                                               ; preds = %14
  %20 = load i32, ptr %4, align 4
  %21 = add i32 %20, 1
  store i32 %21, ptr %4, align 4
  br label %11, !llvm.loop !6

22:                                               ; preds = %11
  %23 = load ptr, ptr %3, align 8
  call void @_ZN19hb_ot_map_builder_t14add_gsub_pauseEPFbPK18hb_ot_shape_plan_tP9hb_font_tP11hb_buffer_tE(ptr noundef nonnull align 8 dereferenceable(128) %23, ptr noundef @_Z21hb_syllabic_clear_varPK18hb_ot_shape_plan_tP9hb_font_tP11hb_buffer_t)
  br label %24

24:                                               ; preds = %32, %22
  %25 = load i32, ptr %4, align 4
  %26 = icmp ult i32 %25, 9
  br i1 %26, label %27, label %35

27:                                               ; preds = %24
  %28 = load ptr, ptr %3, align 8
  %29 = load i32, ptr %4, align 4
  %30 = zext i32 %29 to i64
  %31 = getelementptr inbounds [9 x %struct.hb_ot_map_feature_t], ptr @_ZL14khmer_features, i64 0, i64 %30
  call void @_ZN19hb_ot_map_builder_t11add_featureERK19hb_ot_map_feature_t(ptr noundef nonnull align 8 dereferenceable(128) %28, ptr noundef nonnull align 4 dereferenceable(8) %31)
  br label %32

32:                                               ; preds = %27
  %33 = load i32, ptr %4, align 4
  %34 = add i32 %33, 1
  store i32 %34, ptr %4, align 4
  br label %24, !llvm.loop !8

35:                                               ; preds = %24
  ret void
}