; Function Attrs: mustprogress uwtable
define internal void @_ZL22collect_features_khmerP21hb_ot_shape_planner_t(ptr noundef %0) #0 {
  %2 = getelementptr inbounds i8, ptr %0, i64 40
  tail call void @_ZN19hb_ot_map_builder_t9add_pauseEjPFbPK18hb_ot_shape_plan_tP9hb_font_tP11hb_buffer_tE(ptr noundef nonnull align 8 dereferenceable(128) %2, i32 noundef 0, ptr noundef nonnull @_ZL21setup_syllables_khmerPK18hb_ot_shape_plan_tP9hb_font_tP11hb_buffer_t)
  tail call void @_ZN19hb_ot_map_builder_t9add_pauseEjPFbPK18hb_ot_shape_plan_tP9hb_font_tP11hb_buffer_tE(ptr noundef nonnull align 8 dereferenceable(128) %2, i32 noundef 0, ptr noundef nonnull @_ZL13reorder_khmerPK18hb_ot_shape_plan_tP9hb_font_tP11hb_buffer_t)
  tail call void @_ZN19hb_ot_map_builder_t11add_featureEj25hb_ot_map_feature_flags_tj(ptr noundef nonnull align 8 dereferenceable(128) %2, i32 noundef 1819239276, i32 noundef 65, i32 noundef 1)
  tail call void @_ZN19hb_ot_map_builder_t11add_featureEj25hb_ot_map_feature_flags_tj(ptr noundef nonnull align 8 dereferenceable(128) %2, i32 noundef 1667460464, i32 noundef 65, i32 noundef 1)
  br label %3

3:                                                ; preds = %1, %3
  %indvars.iv = phi i64 [ 0, %1 ], [ %indvars.iv.next, %3 ]
  %4 = getelementptr inbounds [9 x %struct.hb_ot_map_feature_t], ptr @_ZL14khmer_features, i64 0, i64 %indvars.iv
  %5 = load i32, ptr %4, align 8
  %6 = getelementptr inbounds i8, ptr %4, i64 4
  %7 = load i32, ptr %6, align 4
  tail call void @_ZN19hb_ot_map_builder_t11add_featureEj25hb_ot_map_feature_flags_tj(ptr noundef nonnull align 8 dereferenceable(128) %2, i32 noundef %5, i32 noundef %7, i32 noundef 1)
  %indvars.iv.next = add nuw nsw i64 %indvars.iv, 1
  %exitcond.not = icmp eq i64 %indvars.iv.next, 5
  br i1 %exitcond.not, label %.lr.ph.preheader, label %3, !llvm.loop !6

.lr.ph.preheader:                                 ; preds = %3
  tail call void @_ZN19hb_ot_map_builder_t9add_pauseEjPFbPK18hb_ot_shape_plan_tP9hb_font_tP11hb_buffer_tE(ptr noundef nonnull align 8 dereferenceable(128) %2, i32 noundef 0, ptr noundef nonnull @_Z21hb_syllabic_clear_varPK18hb_ot_shape_plan_tP9hb_font_tP11hb_buffer_t)
  br label %.lr.ph

.lr.ph:                                           ; preds = %.lr.ph.preheader, %.lr.ph
  %indvars.iv16 = phi i64 [ 5, %.lr.ph.preheader ], [ %indvars.iv.next17, %.lr.ph ]
  %8 = getelementptr inbounds [9 x %struct.hb_ot_map_feature_t], ptr @_ZL14khmer_features, i64 0, i64 %indvars.iv16
  %9 = load i32, ptr %8, align 8
  %10 = getelementptr inbounds i8, ptr %8, i64 4
  %11 = load i32, ptr %10, align 4
  tail call void @_ZN19hb_ot_map_builder_t11add_featureEj25hb_ot_map_feature_flags_tj(ptr noundef nonnull align 8 dereferenceable(128) %2, i32 noundef %9, i32 noundef %11, i32 noundef 1)
  %indvars.iv.next17 = add nuw nsw i64 %indvars.iv16, 1
  %exitcond19.not = icmp eq i64 %indvars.iv.next17, 9
  br i1 %exitcond19.not, label %._crit_edge, label %.lr.ph, !llvm.loop !8

._crit_edge:                                      ; preds = %.lr.ph
  ret void
}